target datalayout = "e-m:e-p270:32:32-p271:32:32-p272:64:64-i64:64-i128:128-f80:128-n8:16:32:64-S128"
target triple = "x86_64-pc-linux-gnu"

%"struct.boost::atomics::detail::lock_pool::(anonymous namespace)::lock_state" = type { i32, %"struct.boost::atomics::detail::lock_pool::(anonymous namespace)::wait_state_list" }
%"struct.boost::atomics::detail::lock_pool::(anonymous namespace)::wait_state_list" = type { ptr, i8 }
%"union.boost::atomics::detail::lock_pool::(anonymous namespace)::find_address_ptr" = type { ptr }
%"struct.boost::atomics::detail::lock_pool::(anonymous namespace)::wait_state_base" = type { i64, i64 }
%"struct.boost::atomics::detail::lock_pool::(anonymous namespace)::wait_state_list::header" = type { i64, i64 }
%"struct.boost::atomics::detail::lock_pool::(anonymous namespace)::wait_state" = type { %"struct.boost::atomics::detail::lock_pool::(anonymous namespace)::wait_state_base", i32, i32 }

@_ZN5boost7atomics6detail9lock_pool12_GLOBAL__N_114g_find_addressE = internal global %"union.boost::atomics::detail::lock_pool::(anonymous namespace)::find_address_ptr" { ptr @_ZN5boost7atomics6detail9lock_pool12_GLOBAL__N_121find_address_dispatchEPVKvPKS5_m }, align 8

; Function Attrs: mustprogress nounwind uwtable
define internal noundef ptr @_ZN5boost7atomics6detail9lock_pool12_GLOBAL__N_115wait_state_list15get_wait_statesEPPVKvm(ptr noundef %0, i64 noundef %1) #0 align 2 {
  %3 = alloca ptr, align 8
  %4 = alloca i64, align 8
  store ptr %0, ptr %3, align 8, !tbaa !3
  store i64 %1, ptr %4, align 8, !tbaa !7
  %5 = load ptr, ptr %3, align 8, !tbaa !3
  %6 = load i64, ptr %4, align 8, !tbaa !7
  %7 = getelementptr inbounds nuw ptr, ptr %5, i64 %6
  ret ptr %7
}

; Function Attrs: alwaysinline mustprogress nounwind uwtable
define linkonce_odr hidden noundef i32 @_ZN5boost7atomics6detail27convert_memory_order_to_gccENS_12memory_orderE(i32 noundef %0) #2 comdat {
  %2 = alloca i32, align 4
  store i32 %0, ptr %2, align 4, !tbaa !35
  %3 = load i32, ptr %2, align 4, !tbaa !35
  %4 = icmp eq i32 %3, 0
  br i1 %4, label %5, label %6

5:                                                ; preds = %1
  br label %28

6:                                                ; preds = %1
  %7 = load i32, ptr %2, align 4, !tbaa !35
  %8 = icmp eq i32 %7, 1
  br i1 %8, label %9, label %10

9:                                                ; preds = %6
  br label %26

10:                                               ; preds = %6
  %11 = load i32, ptr %2, align 4, !tbaa !35
  %12 = icmp eq i32 %11, 2
  br i1 %12, label %13, label %14

13:                                               ; preds = %10
  br label %24

14:                                               ; preds = %10
  %15 = load i32, ptr %2, align 4, !tbaa !35
  %16 = icmp eq i32 %15, 4
  br i1 %16, label %17, label %18

17:                                               ; preds = %14
  br label %22

18:                                               ; preds = %14
  %19 = load i32, ptr %2, align 4, !tbaa !35
  %20 = icmp eq i32 %19, 6
  %21 = select i1 %20, i32 4, i32 5
  br label %22

22:                                               ; preds = %18, %17
  %23 = phi i32 [ 3, %17 ], [ %21, %18 ]
  br label %24

24:                                               ; preds = %22, %13
  %25 = phi i32 [ 2, %13 ], [ %23, %22 ]
  br label %26

26:                                               ; preds = %24, %9
  %27 = phi i32 [ 1, %9 ], [ %25, %24 ]
  br label %28

28:                                               ; preds = %26, %5
  %29 = phi i32 [ 0, %5 ], [ %27, %26 ]
  ret i32 %29
}

; Function Attrs: alwaysinline mustprogress nounwind uwtable
define linkonce_odr hidden noundef i32 @_ZN5boost7atomics6detail12futex_invokeEPvijjS2_j(ptr noundef %0, i32 noundef %1, i32 noundef %2, i32 noundef %3, ptr noundef %4, i32 noundef %5) #2 comdat {
  %7 = alloca ptr, align 8
  %8 = alloca i32, align 4
  %9 = alloca i32, align 4
  %10 = alloca i32, align 4
  %11 = alloca ptr, align 8
  %12 = alloca i32, align 4
  store ptr %0, ptr %7, align 8, !tbaa !3
  store i32 %1, ptr %8, align 4, !tbaa !11
  store i32 %2, ptr %9, align 4, !tbaa !11
  store i32 %3, ptr %10, align 4, !tbaa !11
  store ptr %4, ptr %11, align 8, !tbaa !3
  store i32 %5, ptr %12, align 4, !tbaa !11
  %13 = load ptr, ptr %7, align 8, !tbaa !3
  %14 = load i32, ptr %8, align 4, !tbaa !11
  %15 = load i32, ptr %9, align 4, !tbaa !11
  %16 = load i32, ptr %10, align 4, !tbaa !11
  %17 = zext i32 %16 to i64
  %18 = load ptr, ptr %11, align 8, !tbaa !3
  %19 = load i32, ptr %12, align 4, !tbaa !11
  %20 = call i64 (i64, ...) @syscall(i64 noundef 202, ptr noundef %13, i32 noundef %14, i32 noundef %15, i64 noundef %17, ptr noundef %18, i32 noundef %19) #14
  %21 = trunc i64 %20 to i32
  ret i32 %21
}

; Function Attrs: mustprogress nounwind uwtable
define internal noundef ptr @_ZN5boost7atomics6detail9lock_pool12_GLOBAL__N_115wait_state_list15get_wait_statesEPNS4_6headerE(ptr noundef %0) #0 align 2 {
  %2 = alloca ptr, align 8
  store ptr %0, ptr %2, align 8, !tbaa !3
  %3 = load ptr, ptr %2, align 8, !tbaa !3
  %4 = call noundef ptr @_ZN5boost7atomics6detail9lock_pool12_GLOBAL__N_115wait_state_list19get_atomic_pointersEPNS4_6headerE(ptr noundef %3) #14
  %5 = load ptr, ptr %2, align 8, !tbaa !3
  %6 = getelementptr inbounds nuw %"struct.boost::atomics::detail::lock_pool::(anonymous namespace)::wait_state_list::header", ptr %5, i32 0, i32 1
  %7 = load i64, ptr %6, align 8, !tbaa !23
  %8 = call noundef ptr @_ZN5boost7atomics6detail9lock_pool12_GLOBAL__N_115wait_state_list15get_wait_statesEPPVKvm(ptr noundef %4, i64 noundef %7) #14
  ret ptr %8
}

; Function Attrs: alwaysinline mustprogress nounwind uwtable
define linkonce_odr hidden noundef i64 @_ZN5boost7atomics6detail26core_operations_gcc_atomicILm8ELb0ELb0EE4loadERVKmNS_12memory_orderE(ptr noundef nonnull align 8 dereferenceable(8) %0, i32 noundef %1) #2 comdat align 2 {
  %3 = alloca ptr, align 8
  %4 = alloca i32, align 4
  %5 = alloca i64, align 8
  store ptr %0, ptr %3, align 8, !tbaa !3
  store i32 %1, ptr %4, align 4, !tbaa !35
  %6 = load ptr, ptr %3, align 8, !tbaa !3
  %7 = load i32, ptr %4, align 4, !tbaa !35
  %8 = call noundef i32 @_ZN5boost7atomics6detail27convert_memory_order_to_gccENS_12memory_orderE(i32 noundef %7) #14
  switch i32 %8, label %9 [
    i32 1, label %11
    i32 2, label %11
    i32 5, label %13
  ]

9:                                                ; preds = %2
  %10 = load atomic volatile i64, ptr %6 monotonic, align 8
  store i64 %10, ptr %5, align 8
  br label %15

11:                                               ; preds = %2, %2
  %12 = load atomic volatile i64, ptr %6 acquire, align 8
  store i64 %12, ptr %5, align 8
  br label %15

13:                                               ; preds = %2
  %14 = load atomic volatile i64, ptr %6 seq_cst, align 8
  store i64 %14, ptr %5, align 8
  br label %15

15:                                               ; preds = %13, %11, %9
  %16 = load i64, ptr %5, align 8, !tbaa !13
  ret i64 %16
}

; Function Attrs: mustprogress nounwind uwtable
define internal noundef ptr @_ZN5boost7atomics6detail9lock_pool12_GLOBAL__N_115wait_state_list19get_atomic_pointersEPNS4_6headerE(ptr noundef %0) #0 align 2 {
  %2 = alloca ptr, align 8
  store ptr %0, ptr %2, align 8, !tbaa !3
  %3 = load ptr, ptr %2, align 8, !tbaa !3
  %4 = getelementptr inbounds nuw i8, ptr %3, i64 16
  ret ptr %4
}

; Function Attrs: alwaysinline mustprogress nounwind uwtable
define linkonce_odr hidden void @_ZN5boost7atomics6detail16extra_operationsINS1_15core_operationsILm4ELb0ELb0EEELm4ELb0ELb1EE9opaque_orERVjjNS_12memory_orderE(ptr noundef nonnull align 4 dereferenceable(4) %0, i32 noundef %1, i32 noundef %2) #2 comdat align 2 {
  %4 = alloca ptr, align 8
  %5 = alloca i32, align 4
  %6 = alloca i32, align 4
  store ptr %0, ptr %4, align 8, !tbaa !3
  store i32 %1, ptr %5, align 4, !tbaa !13
  store i32 %2, ptr %6, align 4, !tbaa !35
  %7 = load ptr, ptr %4, align 8, !tbaa !3
  %8 = load i32, ptr %5, align 4, !tbaa !13
  call void asm sideeffect "lock; orl $1, $0\0A\09", "=*m,ir,*m,~{cc},~{memory},~{dirflag},~{fpsr},~{flags}"(ptr elementtype(i32) %7, i32 %8, ptr elementtype(i32) %7) #14, !srcloc !45
  ret void
}

; Function Attrs: alwaysinline mustprogress nounwind uwtable
define linkonce_odr hidden noundef i32 @_ZN5boost7atomics6detail21futex_requeue_privateEPvS2_jj(ptr noundef %0, ptr noundef %1, i32 noundef %2, i32 noundef %3) #2 comdat {
  %5 = alloca ptr, align 8
  %6 = alloca ptr, align 8
  %7 = alloca i32, align 4
  %8 = alloca i32, align 4
  store ptr %0, ptr %5, align 8, !tbaa !3
  store ptr %1, ptr %6, align 8, !tbaa !3
  store i32 %2, ptr %7, align 4, !tbaa !11
  store i32 %3, ptr %8, align 4, !tbaa !11
  %9 = load ptr, ptr %5, align 8, !tbaa !3
  %10 = load i32, ptr %7, align 4, !tbaa !11
  %11 = load i32, ptr %8, align 4, !tbaa !11
  %12 = load ptr, ptr %6, align 8, !tbaa !3
  %13 = call noundef i32 @_ZN5boost7atomics6detail12futex_invokeEPvijjS2_j(ptr noundef %9, i32 noundef 131, i32 noundef %10, i32 noundef %11, ptr noundef %12, i32 noundef 0) #14
  ret i32 %13
}

; Function Attrs: mustprogress nounwind uwtable
define internal noundef ptr @_ZNK5boost7atomics6detail9lock_pool12_GLOBAL__N_115wait_state_list15get_wait_statesEv(ptr noundef nonnull align 8 dereferenceable(16) %0) #0 align 2 {
  %2 = alloca ptr, align 8
  store ptr %0, ptr %2, align 8, !tbaa !3
  %3 = load ptr, ptr %2, align 8
  %4 = getelementptr inbounds nuw %"struct.boost::atomics::detail::lock_pool::(anonymous namespace)::wait_state_list", ptr %3, i32 0, i32 0
  %5 = load ptr, ptr %4, align 8, !tbaa !18
  %6 = call noundef ptr @_ZN5boost7atomics6detail9lock_pool12_GLOBAL__N_115wait_state_list15get_wait_statesEPNS4_6headerE(ptr noundef %5) #14
  ret ptr %6
}

; Function Attrs: inlinehint mustprogress uwtable
define internal noundef i64 @_ZN5boost7atomics6detail9lock_pool12_GLOBAL__N_112find_addressEPVKvPKS5_m(ptr noundef %0, ptr noundef %1, i64 noundef %2) #12 {
  %4 = alloca ptr, align 8
  %5 = alloca ptr, align 8
  %6 = alloca i64, align 8
  %7 = alloca %"union.boost::atomics::detail::lock_pool::(anonymous namespace)::find_address_ptr", align 8
  store ptr %0, ptr %4, align 8, !tbaa !3
  store ptr %1, ptr %5, align 8, !tbaa !3
  store i64 %2, ptr %6, align 8, !tbaa !7
  call void @llvm.lifetime.start.p0(i64 8, ptr %7) #14
  %8 = call noundef i64 @_ZN5boost7atomics6detail26core_operations_gcc_atomicILm8ELb0ELb0EE4loadERVKmNS_12memory_orderE(ptr noundef nonnull align 8 dereferenceable(8) @_ZN5boost7atomics6detail9lock_pool12_GLOBAL__N_114g_find_addressE, i32 noundef 0) #14
  store i64 %8, ptr %7, align 8, !tbaa !13
  %9 = load ptr, ptr %7, align 8, !tbaa !13
  %10 = load ptr, ptr %4, align 8, !tbaa !3
  %11 = load ptr, ptr %5, align 8, !tbaa !3
  %12 = load i64, ptr %6, align 8, !tbaa !7
  %13 = call noundef i64 %9(ptr noundef %10, ptr noundef %11, i64 noundef %12)
  call void @llvm.lifetime.end.p0(i64 8, ptr %7) #14
  ret i64 %13
}

; Function Attrs: mustprogress nounwind uwtable
define internal noundef ptr @_ZNK5boost7atomics6detail9lock_pool12_GLOBAL__N_115wait_state_list19get_atomic_pointersEv(ptr noundef nonnull align 8 dereferenceable(16) %0) #0 align 2 {
  %2 = alloca ptr, align 8
  store ptr %0, ptr %2, align 8, !tbaa !3
  %3 = load ptr, ptr %2, align 8
  %4 = getelementptr inbounds nuw %"struct.boost::atomics::detail::lock_pool::(anonymous namespace)::wait_state_list", ptr %3, i32 0, i32 0
  %5 = load ptr, ptr %4, align 8, !tbaa !18
  %6 = call noundef ptr @_ZN5boost7atomics6detail9lock_pool12_GLOBAL__N_115wait_state_list19get_atomic_pointersEPNS4_6headerE(ptr noundef %5) #14
  ret ptr %6
}

; Function Attrs: inlinehint mustprogress nounwind uwtable
define internal void @_ZN5boost7atomics6detail9lock_pool12_GLOBAL__N_110wait_state10notify_oneERNS3_10lock_stateE(ptr noundef nonnull align 8 dereferenceable(24) %0, ptr noundef nonnull align 8 dereferenceable(24) %1) #3 align 2 {
  %3 = alloca ptr, align 8
  %4 = alloca ptr, align 8
  store ptr %0, ptr %3, align 8, !tbaa !3
  store ptr %1, ptr %4, align 8, !tbaa !3
  %5 = load ptr, ptr %3, align 8
  %6 = getelementptr inbounds nuw %"struct.boost::atomics::detail::lock_pool::(anonymous namespace)::wait_state", ptr %5, i32 0, i32 1
  %7 = load i32, ptr %6, align 8, !tbaa !28
  %8 = add i32 %7, 1
  store i32 %8, ptr %6, align 8, !tbaa !28
  %9 = getelementptr inbounds nuw %"struct.boost::atomics::detail::lock_pool::(anonymous namespace)::wait_state", ptr %5, i32 0, i32 2
  %10 = load i32, ptr %9, align 4, !tbaa !30
  %11 = icmp ugt i32 %10, 0
  %12 = zext i1 %11 to i64
  %13 = call i64 @llvm.expect.i64(i64 %12, i64 1)
  %14 = icmp ne i64 %13, 0
  br i1 %14, label %15, label %22

15:                                               ; preds = %2
  %16 = getelementptr inbounds nuw %"struct.boost::atomics::detail::lock_pool::(anonymous namespace)::wait_state", ptr %5, i32 0, i32 1
  %17 = load ptr, ptr %4, align 8, !tbaa !3
  %18 = getelementptr inbounds nuw %"struct.boost::atomics::detail::lock_pool::(anonymous namespace)::lock_state", ptr %17, i32 0, i32 0
  %19 = call noundef i32 @_ZN5boost7atomics6detail21futex_requeue_privateEPvS2_jj(ptr noundef %16, ptr noundef %18, i32 noundef 0, i32 noundef 1) #14
  %20 = load ptr, ptr %4, align 8, !tbaa !3
  %21 = getelementptr inbounds nuw %"struct.boost::atomics::detail::lock_pool::(anonymous namespace)::lock_state", ptr %20, i32 0, i32 0
  call void @_ZN5boost7atomics6detail16extra_operationsINS1_15core_operationsILm4ELb0ELb0EEELm4ELb0ELb1EE9opaque_orERVjjNS_12memory_orderE(ptr noundef nonnull align 4 dereferenceable(4) %21, i32 noundef 2, i32 noundef 0) #14
  br label %22

22:                                               ; preds = %15, %2
  ret void
}

; Function Attrs: mustprogress nounwind uwtable
define internal noundef ptr @_ZNK5boost7atomics6detail9lock_pool12_GLOBAL__N_115wait_state_list4findEPVKv(ptr noundef nonnull align 8 dereferenceable(16) %0, ptr noundef %1) #0 align 2 personality ptr @__gxx_personality_v0 {
  %3 = alloca ptr, align 8
  %4 = alloca ptr, align 8
  %5 = alloca ptr, align 8
  %6 = alloca ptr, align 8
  %7 = alloca i64, align 8
  %8 = alloca i64, align 8
  store ptr %0, ptr %3, align 8, !tbaa !3
  store ptr %1, ptr %4, align 8, !tbaa !3
  %9 = load ptr, ptr %3, align 8
  call void @llvm.lifetime.start.p0(i64 8, ptr %5) #14
  store ptr null, ptr %5, align 8, !tbaa !3
  %10 = getelementptr inbounds nuw %"struct.boost::atomics::detail::lock_pool::(anonymous namespace)::wait_state_list", ptr %9, i32 0, i32 0
  %11 = load ptr, ptr %10, align 8, !tbaa !18
  %12 = icmp ne ptr %11, null
  %13 = zext i1 %12 to i64
  %14 = call i64 @llvm.expect.i64(i64 %13, i64 1)
  %15 = icmp ne i64 %14, 0
  br i1 %15, label %16, label %36

16:                                               ; preds = %2
  call void @llvm.lifetime.start.p0(i64 8, ptr %6) #14
  %17 = call noundef ptr @_ZNK5boost7atomics6detail9lock_pool12_GLOBAL__N_115wait_state_list19get_atomic_pointersEv(ptr noundef nonnull align 8 dereferenceable(16) %9) #14
  store ptr %17, ptr %6, align 8, !tbaa !3
  call void @llvm.lifetime.start.p0(i64 8, ptr %7) #14
  %18 = getelementptr inbounds nuw %"struct.boost::atomics::detail::lock_pool::(anonymous namespace)::wait_state_list", ptr %9, i32 0, i32 0
  %19 = load ptr, ptr %18, align 8, !tbaa !18
  %20 = getelementptr inbounds nuw %"struct.boost::atomics::detail::lock_pool::(anonymous namespace)::wait_state_list::header", ptr %19, i32 0, i32 0
  %21 = load i64, ptr %20, align 8, !tbaa !21
  store i64 %21, ptr %7, align 8, !tbaa !7
  call void @llvm.lifetime.start.p0(i64 8, ptr %8) #14
  %22 = load ptr, ptr %4, align 8, !tbaa !3
  %23 = load ptr, ptr %6, align 8, !tbaa !3
  %24 = load i64, ptr %7, align 8, !tbaa !7
  %25 = invoke noundef i64 @_ZN5boost7atomics6detail9lock_pool12_GLOBAL__N_112find_addressEPVKvPKS5_m(ptr noundef %22, ptr noundef %23, i64 noundef %24)
          to label %26 unwind label %38

26:                                               ; preds = %16
  store i64 %25, ptr %8, align 8, !tbaa !7
  %27 = load i64, ptr %8, align 8, !tbaa !7
  %28 = load i64, ptr %7, align 8, !tbaa !7
  %29 = icmp ult i64 %27, %28
  br i1 %29, label %30, label %35

30:                                               ; preds = %26
  %31 = call noundef ptr @_ZNK5boost7atomics6detail9lock_pool12_GLOBAL__N_115wait_state_list15get_wait_statesEv(ptr noundef nonnull align 8 dereferenceable(16) %9) #14
  %32 = load i64, ptr %8, align 8, !tbaa !7
  %33 = getelementptr inbounds nuw ptr, ptr %31, i64 %32
  %34 = load ptr, ptr %33, align 8, !tbaa !3
  store ptr %34, ptr %5, align 8, !tbaa !3
  br label %35

35:                                               ; preds = %30, %26
  call void @llvm.lifetime.end.p0(i64 8, ptr %8) #14
  call void @llvm.lifetime.end.p0(i64 8, ptr %7) #14
  call void @llvm.lifetime.end.p0(i64 8, ptr %6) #14
  br label %36

36:                                               ; preds = %35, %2
  %37 = load ptr, ptr %5, align 8, !tbaa !3
  call void @llvm.lifetime.end.p0(i64 8, ptr %5) #14
  ret ptr %37

38:                                               ; preds = %16
  %39 = landingpad { ptr, i32 }
          catch ptr null
  %40 = extractvalue { ptr, i32 } %39, 0
  call void @__clang_call_terminate(ptr %40) #16
  unreachable
}

; Function Attrs: mustprogress nounwind uwtable
define void @_ZN5boost7atomics6detail9lock_pool10notify_oneEPvPVKv(ptr noundef %0, ptr noundef %1) #0 {
  %3 = alloca ptr, align 8
  %4 = alloca ptr, align 8
  %5 = alloca ptr, align 8
  %6 = alloca ptr, align 8
  store ptr %0, ptr %3, align 8, !tbaa !3
  store ptr %1, ptr %4, align 8, !tbaa !3
  call void @llvm.lifetime.start.p0(i64 8, ptr %5) #14
  %7 = load ptr, ptr %3, align 8, !tbaa !3
  store ptr %7, ptr %5, align 8, !tbaa !3
  call void @llvm.lifetime.start.p0(i64 8, ptr %6) #14
  %8 = load ptr, ptr %5, align 8, !tbaa !3
  %9 = getelementptr inbounds nuw %"struct.boost::atomics::detail::lock_pool::(anonymous namespace)::lock_state", ptr %8, i32 0, i32 1
  %10 = load ptr, ptr %4, align 8, !tbaa !3
  %11 = call noundef ptr @_ZNK5boost7atomics6detail9lock_pool12_GLOBAL__N_115wait_state_list4findEPVKv(ptr noundef nonnull align 8 dereferenceable(16) %9, ptr noundef %10) #14
  store ptr %11, ptr %6, align 8, !tbaa !3
  %12 = load ptr, ptr %6, align 8, !tbaa !3
  %13 = icmp ne ptr %12, null
  %14 = zext i1 %13 to i64
  %15 = call i64 @llvm.expect.i64(i64 %14, i64 1)
  %16 = icmp ne i64 %15, 0
  br i1 %16, label %17, label %20

17:                                               ; preds = %2
  %18 = load ptr, ptr %6, align 8, !tbaa !3
  %19 = load ptr, ptr %5, align 8, !tbaa !3
  call void @_ZN5boost7atomics6detail9lock_pool12_GLOBAL__N_110wait_state10notify_oneERNS3_10lock_stateE(ptr noundef nonnull align 8 dereferenceable(24) %18, ptr noundef nonnull align 8 dereferenceable(24) %19) #14
  br label %20

20:                                               ; preds = %17, %2
  call void @llvm.lifetime.end.p0(i64 8, ptr %6) #14
  call void @llvm.lifetime.end.p0(i64 8, ptr %5) #14
  ret void
}