; Function Attrs: mustprogress nounwind uwtable
define void @_ZN5boost7atomics6detail9lock_pool10notify_oneEPvPVKv(ptr noundef %0, ptr noundef %1) local_unnamed_addr #2 personality ptr @__gxx_personality_v0 {
  %3 = getelementptr inbounds nuw i8, ptr %0, i64 8
  %4 = load ptr, ptr %3, align 8, !tbaa !13
  %.not.i = icmp eq ptr %4, null
  br i1 %.not.i, label %_ZN5boost7atomics6detail9lock_pool12_GLOBAL__N_110wait_state10notify_oneERNS3_10lock_stateE.exit, label %5, !prof !16

5:                                                ; preds = %2
  %6 = getelementptr inbounds nuw i8, ptr %4, i64 16
  %7 = load i64, ptr %4, align 8, !tbaa !17
  %8 = load atomic volatile i64, ptr @_ZN5boost7atomics6detail9lock_pool12_GLOBAL__N_114g_find_addressE monotonic, align 8
  %9 = inttoptr i64 %8 to ptr
  %10 = invoke noundef i64 %9(ptr noundef %1, ptr noundef nonnull %6, i64 noundef %7)
          to label %_ZN5boost7atomics6detail9lock_pool12_GLOBAL__N_112find_addressEPVKvPKS5_m.exit.i unwind label %12

_ZN5boost7atomics6detail9lock_pool12_GLOBAL__N_112find_addressEPVKvPKS5_m.exit.i: ; preds = %5
  %11 = icmp ult i64 %10, %7
  br i1 %11, label %_ZNK5boost7atomics6detail9lock_pool12_GLOBAL__N_115wait_state_list4findEPVKv.exit, label %_ZN5boost7atomics6detail9lock_pool12_GLOBAL__N_110wait_state10notify_oneERNS3_10lock_stateE.exit

12:                                               ; preds = %5
  %13 = landingpad { ptr, i32 }
          catch ptr null
  %14 = extractvalue { ptr, i32 } %13, 0
  tail call void @__clang_call_terminate(ptr %14) #18
  unreachable

_ZNK5boost7atomics6detail9lock_pool12_GLOBAL__N_115wait_state_list4findEPVKv.exit: ; preds = %_ZN5boost7atomics6detail9lock_pool12_GLOBAL__N_112find_addressEPVKvPKS5_m.exit.i
  %.val.i = load ptr, ptr %3, align 8, !tbaa !13
  %15 = getelementptr inbounds nuw i8, ptr %.val.i, i64 16
  %16 = getelementptr inbounds nuw i8, ptr %.val.i, i64 8
  %17 = load i64, ptr %16, align 8, !tbaa !20
  %18 = getelementptr inbounds nuw ptr, ptr %15, i64 %17
  %19 = getelementptr inbounds nuw ptr, ptr %18, i64 %10
  %20 = load ptr, ptr %19, align 8, !tbaa !3
  %.not = icmp eq ptr %20, null
  br i1 %.not, label %_ZN5boost7atomics6detail9lock_pool12_GLOBAL__N_110wait_state10notify_oneERNS3_10lock_stateE.exit, label %21, !prof !21

21:                                               ; preds = %_ZNK5boost7atomics6detail9lock_pool12_GLOBAL__N_115wait_state_list4findEPVKv.exit
  %22 = getelementptr inbounds nuw i8, ptr %20, i64 16
  %23 = load i32, ptr %22, align 8, !tbaa !25
  %24 = add i32 %23, 1
  store i32 %24, ptr %22, align 8, !tbaa !25
  %25 = getelementptr inbounds nuw i8, ptr %20, i64 20
  %26 = load i32, ptr %25, align 4, !tbaa !27
  %.not.i6 = icmp eq i32 %26, 0
  br i1 %.not.i6, label %_ZN5boost7atomics6detail9lock_pool12_GLOBAL__N_110wait_state10notify_oneERNS3_10lock_stateE.exit, label %27, !prof !16

27:                                               ; preds = %21
  %28 = tail call i64 (i64, ...) @syscall(i64 noundef 202, ptr noundef nonnull %22, i32 noundef 131, i32 noundef 0, i64 noundef 1, ptr noundef nonnull align 8 dereferenceable(24) %0, i32 noundef 0) #17
  tail call void asm sideeffect "lock; orl $1, $0\0A\09", "=*m,ir,*m,~{cc},~{memory},~{dirflag},~{fpsr},~{flags}"(ptr nonnull elementtype(i32) align 8 dereferenceable(24) %0, i32 2, ptr nonnull elementtype(i32) align 8 dereferenceable(24) %0) #17, !srcloc !33
  br label %_ZN5boost7atomics6detail9lock_pool12_GLOBAL__N_110wait_state10notify_oneERNS3_10lock_stateE.exit

_ZN5boost7atomics6detail9lock_pool12_GLOBAL__N_110wait_state10notify_oneERNS3_10lock_stateE.exit: ; preds = %_ZN5boost7atomics6detail9lock_pool12_GLOBAL__N_112find_addressEPVKvPKS5_m.exit.i, %2, %27, %21, %_ZNK5boost7atomics6detail9lock_pool12_GLOBAL__N_115wait_state_list4findEPVKv.exit
  ret void
}